target datalayout = "e-m:e-p270:32:32-p271:32:32-p272:64:64-i64:64-i128:128-f80:128-n8:16:32:64-S128"
target triple = "x86_64-pc-linux-gnu"

%"class.std::vector" = type { %"struct.std::_Vector_base" }
%"struct.std::_Vector_base" = type { %"struct.std::_Vector_base<float, std::allocator<float>>::_Vector_impl" }
%"struct.std::_Vector_base<float, std::allocator<float>>::_Vector_impl" = type { %"struct.std::_Vector_base<float, std::allocator<float>>::_Vector_impl_data" }
%"struct.std::_Vector_base<float, std::allocator<float>>::_Vector_impl_data" = type { ptr, ptr, ptr }
%"struct.faiss::ScalarQuantizer::SQuantizer" = type { ptr }
%"struct.faiss::(anonymous namespace)::QuantizerFP16" = type { %"struct.faiss::ScalarQuantizer::SQuantizer", i64 }
%"struct.faiss::ScalarQuantizer::SQDistanceComputer" = type { %"struct.faiss::FlatCodesDistanceComputer", ptr }
%"struct.faiss::FlatCodesDistanceComputer" = type { %"struct.faiss::DistanceComputer", ptr, i64 }
%"struct.faiss::DistanceComputer" = type { ptr }
%"struct.faiss::(anonymous namespace)::DCTemplate.13" = type { %"struct.faiss::ScalarQuantizer::SQDistanceComputer", %"struct.faiss::(anonymous namespace)::QuantizerFP16" }
%"struct.faiss::(anonymous namespace)::SimilarityL2" = type <{ ptr, ptr, float, [4 x i8] }>
%"struct.faiss::InvertedListScanner" = type { ptr, i64, i8, i8, ptr, i64 }
%"struct.faiss::(anonymous namespace)::IVFSQScannerL2.42" = type { %"struct.faiss::InvertedListScanner", %"struct.faiss::(anonymous namespace)::DCTemplate.13", i8, ptr, ptr, %"class.std::vector" }

; Function Attrs: mustprogress nounwind uwtable
define internal noundef i32 @_ZN5faiss12_GLOBAL__N_17intbitsEf(float noundef %0) #1 {
  %2 = alloca float, align 4
  %3 = alloca ptr, align 8
  store float %0, ptr %2, align 4
  store ptr %2, ptr %3, align 8
  %4 = load ptr, ptr %3, align 8
  %5 = load i32, ptr %4, align 4
  ret i32 %5
}

; Function Attrs: mustprogress nounwind uwtable
define internal noundef float @_ZN5faiss12_GLOBAL__N_19floatbitsEj(i32 noundef %0) #1 {
  %2 = alloca i32, align 4
  %3 = alloca ptr, align 8
  store i32 %0, ptr %2, align 4
  store ptr %2, ptr %3, align 8
  %4 = load ptr, ptr %3, align 8
  %5 = load float, ptr %4, align 4
  ret float %5
}

; Function Attrs: mustprogress nounwind uwtable
define linkonce_odr noundef float @_ZN5faiss11decode_fp16Et(i16 noundef zeroext %0) #1 comdat {
  %2 = alloca i16, align 2
  %3 = alloca i32, align 4
  %4 = alloca i32, align 4
  %5 = alloca i32, align 4
  %6 = alloca i32, align 4
  %7 = alloca i32, align 4
  %8 = alloca i32, align 4
  %9 = alloca i32, align 4
  store i16 %0, ptr %2, align 2
  store i32 260046848, ptr %3, align 4
  %10 = load i16, ptr %2, align 2
  %11 = zext i16 %10 to i32
  %12 = and i32 %11, 32767
  %13 = shl i32 %12, 13
  store i32 %13, ptr %4, align 4
  %14 = load i32, ptr %4, align 4
  %15 = and i32 260046848, %14
  store i32 %15, ptr %5, align 4
  %16 = load i32, ptr %4, align 4
  %17 = add nsw i32 %16, 939524096
  store i32 %17, ptr %4, align 4
  %18 = load i32, ptr %4, align 4
  %19 = add nsw i32 %18, 939524096
  store i32 %19, ptr %6, align 4
  %20 = load i32, ptr %4, align 4
  %21 = add i32 %20, 8388608
  %22 = call noundef float @_ZN5faiss12_GLOBAL__N_19floatbitsEj(i32 noundef %21)
  %23 = call noundef float @_ZN5faiss12_GLOBAL__N_19floatbitsEj(i32 noundef 947912704)
  %24 = fsub float %22, %23
  %25 = call noundef i32 @_ZN5faiss12_GLOBAL__N_17intbitsEf(float noundef %24)
  store i32 %25, ptr %7, align 4
  %26 = load i32, ptr %5, align 4
  %27 = icmp eq i32 %26, 0
  br i1 %27, label %28, label %30

28:                                               ; preds = %1
  %29 = load i32, ptr %7, align 4
  br label %32

30:                                               ; preds = %1
  %31 = load i32, ptr %4, align 4
  br label %32

32:                                               ; preds = %30, %28
  %33 = phi i32 [ %29, %28 ], [ %31, %30 ]
  store i32 %33, ptr %8, align 4
  %34 = load i16, ptr %2, align 2
  %35 = zext i16 %34 to i32
  %36 = and i32 %35, 32768
  %37 = shl i32 %36, 16
  store i32 %37, ptr %9, align 4
  %38 = load i32, ptr %5, align 4
  %39 = icmp eq i32 %38, 260046848
  br i1 %39, label %40, label %42

40:                                               ; preds = %32
  %41 = load i32, ptr %6, align 4
  br label %44

42:                                               ; preds = %32
  %43 = load i32, ptr %8, align 4
  br label %44

44:                                               ; preds = %42, %40
  %45 = phi i32 [ %41, %40 ], [ %43, %42 ]
  %46 = load i32, ptr %9, align 4
  %47 = or i32 %45, %46
  %48 = call noundef float @_ZN5faiss12_GLOBAL__N_19floatbitsEj(i32 noundef %47)
  ret float %48
}

; Function Attrs: mustprogress nounwind uwtable
define internal void @_ZN5faiss12_GLOBAL__N_112SimilarityL2ILi1EEC2EPKf(ptr noundef nonnull align 8 dereferenceable(20) %0, ptr noundef %1) unnamed_addr #1 align 2 {
  %3 = alloca ptr, align 8
  %4 = alloca ptr, align 8
  store ptr %0, ptr %3, align 8
  store ptr %1, ptr %4, align 8
  %5 = load ptr, ptr %3, align 8
  %6 = getelementptr inbounds %"struct.faiss::(anonymous namespace)::SimilarityL2", ptr %5, i32 0, i32 0
  %7 = load ptr, ptr %4, align 8
  store ptr %7, ptr %6, align 8
  ret void
}

; Function Attrs: mustprogress uwtable
define internal noundef float @_ZNK5faiss12_GLOBAL__N_110DCTemplateINS0_13QuantizerFP16ILi1EEENS0_12SimilarityL2ILi1EEELi1EE16compute_distanceEPKfPKh(ptr noundef nonnull align 8 dereferenceable(48) %0, ptr noundef %1, ptr noundef %2) #0 align 2 {
  %4 = alloca ptr, align 8
  %5 = alloca ptr, align 8
  %6 = alloca i32, align 4
  %7 = alloca ptr, align 8
  %8 = alloca float, align 4
  %9 = alloca float, align 4
  %10 = alloca ptr, align 8
  %11 = alloca ptr, align 8
  %12 = alloca ptr, align 8
  %13 = alloca ptr, align 8
  %14 = alloca ptr, align 8
  %15 = alloca %"struct.faiss::(anonymous namespace)::SimilarityL2", align 8
  %16 = alloca i64, align 8
  %17 = alloca float, align 4
  store ptr %0, ptr %12, align 8
  store ptr %1, ptr %13, align 8
  store ptr %2, ptr %14, align 8
  %18 = load ptr, ptr %12, align 8
  %19 = load ptr, ptr %13, align 8
  call void @_ZN5faiss12_GLOBAL__N_112SimilarityL2ILi1EEC2EPKf(ptr noundef nonnull align 8 dereferenceable(20) %15, ptr noundef %19)
  store ptr %15, ptr %11, align 8
  %20 = load ptr, ptr %11, align 8
  %21 = getelementptr inbounds %"struct.faiss::(anonymous namespace)::SimilarityL2", ptr %20, i32 0, i32 2
  store float 0.000000e+00, ptr %21, align 8
  %22 = load ptr, ptr %20, align 8
  %23 = getelementptr inbounds %"struct.faiss::(anonymous namespace)::SimilarityL2", ptr %20, i32 0, i32 1
  store ptr %22, ptr %23, align 8
  store i64 0, ptr %16, align 8
  br label %24

24:                                               ; preds = %54, %3
  %25 = load i64, ptr %16, align 8
  %26 = getelementptr inbounds %"struct.faiss::(anonymous namespace)::DCTemplate.13", ptr %18, i32 0, i32 1
  %27 = getelementptr inbounds %"struct.faiss::(anonymous namespace)::QuantizerFP16", ptr %26, i32 0, i32 1
  %28 = load i64, ptr %27, align 8
  %29 = icmp ult i64 %25, %28
  br i1 %29, label %30, label %57

30:                                               ; preds = %24
  %31 = getelementptr inbounds %"struct.faiss::(anonymous namespace)::DCTemplate.13", ptr %18, i32 0, i32 1
  %32 = load ptr, ptr %14, align 8
  %33 = load i64, ptr %16, align 8
  %34 = trunc i64 %33 to i32
  store ptr %31, ptr %4, align 8
  store ptr %32, ptr %5, align 8
  store i32 %34, ptr %6, align 4
  %35 = load ptr, ptr %5, align 8
  %36 = load i32, ptr %6, align 4
  %37 = sext i32 %36 to i64
  %38 = getelementptr inbounds i16, ptr %35, i64 %37
  %39 = load i16, ptr %38, align 2
  %40 = call noundef float @_ZN5faiss11decode_fp16Et(i16 noundef zeroext %39)
  store float %40, ptr %17, align 4
  %41 = load float, ptr %17, align 4
  store ptr %15, ptr %7, align 8
  store float %41, ptr %8, align 4
  %42 = load ptr, ptr %7, align 8
  %43 = getelementptr inbounds %"struct.faiss::(anonymous namespace)::SimilarityL2", ptr %42, i32 0, i32 1
  %44 = load ptr, ptr %43, align 8
  %45 = getelementptr inbounds float, ptr %44, i32 1
  store ptr %45, ptr %43, align 8
  %46 = load float, ptr %44, align 4
  %47 = load float, ptr %8, align 4
  %48 = fsub float %46, %47
  store float %48, ptr %9, align 4
  %49 = load float, ptr %9, align 4
  %50 = load float, ptr %9, align 4
  %51 = getelementptr inbounds %"struct.faiss::(anonymous namespace)::SimilarityL2", ptr %42, i32 0, i32 2
  %52 = load float, ptr %51, align 8
  %53 = call float @llvm.fmuladd.f32(float %49, float %50, float %52)
  store float %53, ptr %51, align 8
  br label %54

54:                                               ; preds = %30
  %55 = load i64, ptr %16, align 8
  %56 = add i64 %55, 1
  store i64 %56, ptr %16, align 8
  br label %24, !llvm.loop !56

57:                                               ; preds = %24
  store ptr %15, ptr %10, align 8
  %58 = load ptr, ptr %10, align 8
  %59 = getelementptr inbounds %"struct.faiss::(anonymous namespace)::SimilarityL2", ptr %58, i32 0, i32 2
  %60 = load float, ptr %59, align 8
  ret float %60
}

; Function Attrs: mustprogress uwtable
define internal noundef float @_ZNK5faiss12_GLOBAL__N_110DCTemplateINS0_13QuantizerFP16ILi1EEENS0_12SimilarityL2ILi1EEELi1EE13query_to_codeEPKh(ptr noundef nonnull align 8 dereferenceable(48) %0, ptr noundef %1) unnamed_addr #0 align 2 {
  %3 = alloca ptr, align 8
  %4 = alloca ptr, align 8
  store ptr %0, ptr %3, align 8
  store ptr %1, ptr %4, align 8
  %5 = load ptr, ptr %3, align 8
  %6 = getelementptr inbounds %"struct.faiss::ScalarQuantizer::SQDistanceComputer", ptr %5, i32 0, i32 1
  %7 = load ptr, ptr %6, align 8
  %8 = load ptr, ptr %4, align 8
  %9 = call noundef float @_ZNK5faiss12_GLOBAL__N_110DCTemplateINS0_13QuantizerFP16ILi1EEENS0_12SimilarityL2ILi1EEELi1EE16compute_distanceEPKfPKh(ptr noundef nonnull align 8 dereferenceable(48) %5, ptr noundef %7, ptr noundef %8)
  ret float %9
}

; Function Attrs: mustprogress uwtable
define internal void @_ZNK5faiss12_GLOBAL__N_114IVFSQScannerL2INS0_10DCTemplateINS0_13QuantizerFP16ILi1EEENS0_12SimilarityL2ILi1EEELi1EEELi2EE16scan_codes_rangeEmPKhPKlfRNS_16RangeQueryResultE(ptr noundef nonnull align 8 dereferenceable(136) %0, i64 noundef %1, ptr noundef %2, ptr noundef %3, float noundef %4, ptr noundef nonnull align 8 dereferenceable(24) %5) unnamed_addr #0 align 2 {
  %7 = alloca ptr, align 8
  %8 = alloca i64, align 8
  %9 = alloca ptr, align 8
  %10 = alloca ptr, align 8
  %11 = alloca float, align 4
  %12 = alloca ptr, align 8
  %13 = alloca i64, align 8
  %14 = alloca float, align 4
  %15 = alloca i64, align 8
  store ptr %0, ptr %7, align 8
  store i64 %1, ptr %8, align 8
  store ptr %2, ptr %9, align 8
  store ptr %3, ptr %10, align 8
  store float %4, ptr %11, align 4
  store ptr %5, ptr %12, align 8
  %16 = load ptr, ptr %7, align 8
  store i64 0, ptr %13, align 8
  br label %17

17:                                               ; preds = %58, %6
  %18 = load i64, ptr %13, align 8
  %19 = load i64, ptr %8, align 8
  %20 = icmp ult i64 %18, %19
  br i1 %20, label %21, label %65

21:                                               ; preds = %17
  %22 = getelementptr inbounds %"struct.faiss::InvertedListScanner", ptr %16, i32 0, i32 4
  %23 = load ptr, ptr %22, align 8
  %24 = load i64, ptr %13, align 8
  %25 = load ptr, ptr %23, align 8
  %26 = getelementptr inbounds ptr, ptr %25, i64 0
  %27 = load ptr, ptr %26, align 8
  %28 = call noundef zeroext i1 %27(ptr noundef nonnull align 8 dereferenceable(8) %23, i64 noundef %24)
  br i1 %28, label %30, label %29

29:                                               ; preds = %21
  br label %58

30:                                               ; preds = %21
  %31 = getelementptr inbounds %"struct.faiss::(anonymous namespace)::IVFSQScannerL2.42", ptr %16, i32 0, i32 1
  %32 = load ptr, ptr %9, align 8
  %33 = call noundef float @_ZNK5faiss12_GLOBAL__N_110DCTemplateINS0_13QuantizerFP16ILi1EEENS0_12SimilarityL2ILi1EEELi1EE13query_to_codeEPKh(ptr noundef nonnull align 8 dereferenceable(48) %31, ptr noundef %32)
  store float %33, ptr %14, align 4
  %34 = load float, ptr %14, align 4
  %35 = load float, ptr %11, align 4
  %36 = fcmp olt float %34, %35
  br i1 %36, label %37, label %57

37:                                               ; preds = %30
  %38 = getelementptr inbounds %"struct.faiss::InvertedListScanner", ptr %16, i32 0, i32 3
  %39 = load i8, ptr %38, align 1
  %40 = trunc i8 %39 to i1
  br i1 %40, label %41, label %47

41:                                               ; preds = %37
  %42 = getelementptr inbounds %"struct.faiss::InvertedListScanner", ptr %16, i32 0, i32 1
  %43 = load i64, ptr %42, align 8
  %44 = shl i64 %43, 32
  %45 = load i64, ptr %13, align 8
  %46 = or i64 %44, %45
  br label %52

47:                                               ; preds = %37
  %48 = load ptr, ptr %10, align 8
  %49 = load i64, ptr %13, align 8
  %50 = getelementptr inbounds i64, ptr %48, i64 %49
  %51 = load i64, ptr %50, align 8
  br label %52

52:                                               ; preds = %47, %41
  %53 = phi i64 [ %46, %41 ], [ %51, %47 ]
  store i64 %53, ptr %15, align 8
  %54 = load ptr, ptr %12, align 8
  %55 = load float, ptr %14, align 4
  %56 = load i64, ptr %15, align 8
  call void @_ZN5faiss16RangeQueryResult3addEfl(ptr noundef nonnull align 8 dereferenceable(24) %54, float noundef %55, i64 noundef %56)
  br label %57

57:                                               ; preds = %52, %30
  br label %58

58:                                               ; preds = %57, %29
  %59 = load i64, ptr %13, align 8
  %60 = add i64 %59, 1
  store i64 %60, ptr %13, align 8
  %61 = getelementptr inbounds %"struct.faiss::InvertedListScanner", ptr %16, i32 0, i32 5
  %62 = load i64, ptr %61, align 8
  %63 = load ptr, ptr %9, align 8
  %64 = getelementptr inbounds i8, ptr %63, i64 %62
  store ptr %64, ptr %9, align 8
  br label %17, !llvm.loop !109

65:                                               ; preds = %17
  ret void
}