; Function Attrs: mustprogress uwtable
define internal void @_ZNK5faiss12_GLOBAL__N_114IVFSQScannerL2INS0_10DCTemplateINS0_13QuantizerFP16ILi1EEENS0_12SimilarityL2ILi1EEELi1EEELi2EE16scan_codes_rangeEmPKhPKlfRNS_16RangeQueryResultE(ptr nocapture noundef nonnull readonly align 8 dereferenceable(136) %0, i64 noundef %1, ptr nocapture noundef readonly %2, ptr nocapture noundef readonly %3, float noundef %4, ptr noundef nonnull align 8 dereferenceable(24) %5) unnamed_addr #0 align 2 {
  %.not20 = icmp eq i64 %1, 0
  br i1 %.not20, label %._crit_edge, label %.lr.ph

.lr.ph:                                           ; preds = %6
  %7 = getelementptr inbounds i8, ptr %0, i64 24
  %8 = getelementptr inbounds i8, ptr %0, i64 80
  %9 = getelementptr inbounds i8, ptr %0, i64 64
  %10 = getelementptr inbounds i8, ptr %0, i64 17
  %11 = getelementptr inbounds i8, ptr %0, i64 8
  %12 = getelementptr inbounds i8, ptr %0, i64 32
  br label %13

13:                                               ; preds = %.lr.ph, %58
  %.018 = phi ptr [ %2, %.lr.ph ], [ %61, %58 ]
  %.01416 = phi i64 [ 0, %.lr.ph ], [ %59, %58 ]
  %14 = load ptr, ptr %7, align 8
  %15 = load ptr, ptr %14, align 8
  %16 = load ptr, ptr %15, align 8
  %17 = tail call noundef zeroext i1 %16(ptr noundef nonnull align 8 dereferenceable(8) %14, i64 noundef %.01416)
  br i1 %17, label %18, label %58

18:                                               ; preds = %13
  %.val.i = load i64, ptr %8, align 8
  %.not.i.i = icmp eq i64 %.val.i, 0
  br i1 %.not.i.i, label %_ZNK5faiss12_GLOBAL__N_110DCTemplateINS0_13QuantizerFP16ILi1EEENS0_12SimilarityL2ILi1EEELi1EE13query_to_codeEPKh.exit, label %.lr.ph.i.preheader.i

.lr.ph.i.preheader.i:                             ; preds = %18
  %19 = load ptr, ptr %9, align 8
  br label %.lr.ph.i.i

.lr.ph.i.i:                                       ; preds = %.lr.ph.i.i, %.lr.ph.i.preheader.i
  %.04.i.i = phi i64 [ %44, %.lr.ph.i.i ], [ 0, %.lr.ph.i.preheader.i ]
  %.sroa.5.03.i.i = phi float [ %43, %.lr.ph.i.i ], [ 0.000000e+00, %.lr.ph.i.preheader.i ]
  %.sroa.2.02.i.i = phi ptr [ %40, %.lr.ph.i.i ], [ %19, %.lr.ph.i.preheader.i ]
  %sext.i.i = shl i64 %.04.i.i, 32
  %20 = ashr exact i64 %sext.i.i, 32
  %21 = getelementptr inbounds i16, ptr %.018, i64 %20
  %22 = load i16, ptr %21, align 2
  %23 = zext i16 %22 to i32
  %24 = shl nuw nsw i32 %23, 13
  %25 = and i32 %24, 268427264
  %26 = and i32 %24, 260046848
  %27 = add nuw nsw i32 %25, 939524096
  %28 = or i32 %24, 1879048192
  %29 = add nuw nsw i32 %25, 947912704
  %30 = bitcast i32 %29 to float
  %31 = fadd float %30, 0xBF10000000000000
  %32 = bitcast float %31 to i32
  %33 = icmp eq i32 %26, 0
  %34 = select i1 %33, i32 %32, i32 %27
  %.signext.i.i.i = sext i16 %22 to i32
  %35 = and i32 %.signext.i.i.i, -2147483648
  %36 = icmp eq i32 %26, 260046848
  %37 = select i1 %36, i32 %28, i32 %34
  %38 = or i32 %37, %35
  %39 = bitcast i32 %38 to float
  %40 = getelementptr inbounds i8, ptr %.sroa.2.02.i.i, i64 4
  %41 = load float, ptr %.sroa.2.02.i.i, align 4
  %42 = fsub float %41, %39
  %43 = tail call float @llvm.fmuladd.f32(float %42, float %42, float %.sroa.5.03.i.i)
  %44 = add nuw i64 %.04.i.i, 1
  %exitcond.not.i.i = icmp eq i64 %44, %.val.i
  br i1 %exitcond.not.i.i, label %_ZNK5faiss12_GLOBAL__N_110DCTemplateINS0_13QuantizerFP16ILi1EEENS0_12SimilarityL2ILi1EEELi1EE13query_to_codeEPKh.exit, label %.lr.ph.i.i, !llvm.loop !55

_ZNK5faiss12_GLOBAL__N_110DCTemplateINS0_13QuantizerFP16ILi1EEENS0_12SimilarityL2ILi1EEELi1EE13query_to_codeEPKh.exit: ; preds = %.lr.ph.i.i, %18
  %.sroa.5.0.lcssa.i.i = phi float [ 0.000000e+00, %18 ], [ %43, %.lr.ph.i.i ]
  %45 = fcmp olt float %.sroa.5.0.lcssa.i.i, %4
  br i1 %45, label %46, label %58

46:                                               ; preds = %_ZNK5faiss12_GLOBAL__N_110DCTemplateINS0_13QuantizerFP16ILi1EEENS0_12SimilarityL2ILi1EEELi1EE13query_to_codeEPKh.exit
  %47 = load i8, ptr %10, align 1
  %48 = and i8 %47, 1
  %.not = icmp eq i8 %48, 0
  br i1 %.not, label %53, label %49

49:                                               ; preds = %46
  %50 = load i64, ptr %11, align 8
  %51 = shl i64 %50, 32
  %52 = or i64 %51, %.01416
  br label %56

53:                                               ; preds = %46
  %54 = getelementptr inbounds i64, ptr %3, i64 %.01416
  %55 = load i64, ptr %54, align 8
  br label %56

56:                                               ; preds = %53, %49
  %57 = phi i64 [ %52, %49 ], [ %55, %53 ]
  tail call void @_ZN5faiss16RangeQueryResult3addEfl(ptr noundef nonnull align 8 dereferenceable(24) %5, float noundef %.sroa.5.0.lcssa.i.i, i64 noundef %57)
  br label %58

58:                                               ; preds = %_ZNK5faiss12_GLOBAL__N_110DCTemplateINS0_13QuantizerFP16ILi1EEENS0_12SimilarityL2ILi1EEELi1EE13query_to_codeEPKh.exit, %56, %13
  %59 = add nuw i64 %.01416, 1
  %60 = load i64, ptr %12, align 8
  %61 = getelementptr inbounds i8, ptr %.018, i64 %60
  %exitcond.not = icmp eq i64 %59, %1
  br i1 %exitcond.not, label %._crit_edge, label %13, !llvm.loop !108

._crit_edge:                                      ; preds = %58, %6
  ret void
}